Certificate:
    Data:
        Version: 3 (0x2)
        Serial Number:
            12:70:00:00:10:01
        Signature Algorithm: sha256WithRSAEncryption
        Issuer: C=VN, ST=Thanh Khe, L=Da Nang, O=SFR Software, OU=Server Certificate Provider, CN=Local CA/emailAddress=ca@localhost
        Validity
            Not Before: Sep 12 09:45:59 2019 GMT
            Not After : Sep 11 09:45:59 2021 GMT
        Subject: C=VN, ST=Thanh Khe, L=Da Nang, O=SFR Software, CN=holipic-ltd.com
        Subject Public Key Info:
            Public Key Algorithm: rsaEncryption
                RSA Public-Key: (4096 bit)
                Modulus:
                    00:d4:b0:9b:87:50:df:bd:63:e5:e6:d8:59:1a:7f:
                    95:c9:8c:f5:d8:7a:6f:3d:44:43:06:37:07:6f:d9:
                    61:45:cc:5a:24:df:10:81:6e:c7:88:4f:be:23:67:
                    d3:43:0a:c3:23:84:a5:20:b8:5e:9a:2b:1c:ca:4c:
                    4b:cb:0f:e1:52:da:e3:da:62:56:69:8e:f4:87:e4:
                    86:dd:e7:1d:71:e5:35:07:08:65:e8:50:53:e0:ff:
                    43:12:4b:09:4f:9d:07:3d:b8:ee:30:d0:06:ce:e2:
                    60:2c:2b:54:56:cf:ac:45:09:88:89:ae:48:ec:24:
                    f0:12:59:45:13:c2:d6:3a:38:0f:1f:35:f0:b1:59:
                    67:12:85:dd:b4:ee:b8:ab:31:78:15:6e:07:d7:fa:
                    17:34:4e:2e:65:e9:02:b7:65:6a:f1:dc:3b:97:e7:
                    a8:bc:df:25:cc:d2:4d:6d:c3:a7:d6:a1:2a:9b:02:
                    4c:21:c7:36:fe:90:7f:e9:32:ca:91:63:cd:8b:db:
                    c2:e4:8e:a1:f9:1f:0d:01:cf:93:83:22:45:ea:12:
                    c5:35:e5:51:b5:9b:59:44:9d:e7:01:89:cf:f1:25:
                    16:bf:0f:0e:42:0e:36:4c:52:46:20:f9:58:7e:9f:
                    0a:35:59:3f:d6:49:cc:96:00:61:cd:38:c0:12:af:
                    ca:5f:79:21:f3:3c:16:5d:26:bd:66:50:35:98:90:
                    9c:00:6a:b4:98:1c:19:a4:e9:01:da:53:68:70:d0:
                    ae:1e:a2:be:7f:12:40:cb:d0:e3:cf:a5:f0:ab:7a:
                    cb:f4:e8:de:2e:09:84:38:76:08:e1:ed:d3:4b:14:
                    d6:51:eb:89:fe:8f:f2:92:df:1f:9a:57:2b:09:d1:
                    36:58:96:a2:88:4f:31:24:2a:64:09:76:eb:39:1a:
                    78:1d:93:eb:8a:5a:fd:85:88:de:3d:09:39:8b:44:
                    fb:04:00:f7:27:83:be:4b:f3:0a:e1:4b:f6:d0:8e:
                    25:51:f6:11:46:43:b0:98:c5:3f:5f:d4:43:15:31:
                    81:74:1d:07:92:ec:c7:f0:0f:f8:e2:ba:fb:f7:c8:
                    2a:46:29:ef:0d:c2:27:39:fc:e7:7d:3f:15:8d:02:
                    92:2e:0c:c6:d8:0c:a5:e9:25:96:f4:bd:92:e0:68:
                    99:aa:05:8f:83:c8:28:ef:9b:22:f1:38:fd:3a:85:
                    d9:14:09:7c:e8:b5:e4:36:bc:73:ee:38:0d:40:46:
                    d7:b3:84:32:af:d8:61:10:3a:1b:88:35:0f:23:55:
                    31:59:67:bd:bf:fa:0f:c8:d2:bf:37:ab:eb:4b:1a:
                    d5:25:c7:4d:23:6a:a5:eb:d5:84:2c:59:ba:60:57:
                    ed:83:9d
                Exponent: 65537 (0x10001)
        X509v3 extensions:
            X509v3 Subject Key Identifier: 
                2D:2E:F1:E9:66:D3:3C:E1:47:CF:C5:46:20:59:CF:98:1D:79:05:04
            X509v3 Authority Key Identifier: 
                keyid:21:00:51:7E:28:C3:45:92:6F:CD:26:30:B8:29:92:85:BD:84:86:5D

            X509v3 Basic Constraints: 
                CA:FALSE
            X509v3 Key Usage: 
                Digital Signature, Key Encipherment
            X509v3 Subject Alternative Name: 
                DNS:holipic-ltd.com, IP Address:127.0.1.1, IP Address:0:0:0:0:0:0:0:1
            Netscape Comment: 
                OpenSSL Generated Certificate
    Signature Algorithm: sha256WithRSAEncryption
         11:9f:70:17:bb:d3:3c:83:aa:57:a3:e7:1e:5e:67:10:59:aa:
         33:1e:05:87:ab:fc:35:42:c6:6d:d8:3a:d4:fd:6e:d9:fa:ba:
         d1:5a:3e:4c:30:c4:36:b9:8e:d4:7b:7d:21:a0:4d:c1:0d:25:
         ed:d7:a9:8e:20:c8:80:b5:b3:0c:bb:2a:5a:72:1d:87:ea:b3:
         86:38:fb:32:21:42:43:32:b9:fb:51:b6:53:eb:e6:a5:f5:e2:
         ae:cc:d9:ad:0f:13:3b:21:01:ed:3d:8a:01:ed:2a:57:b7:5b:
         ef:55:21:48:75:fd:79:e6:9a:c2:34:69:7d:d2:e6:8c:b9:fa:
         53:c0:46:25:88:4b:d0:24:00:45:48:5e:72:fd:22:f7:d9:37:
         fb:6d:a9:59:ef:df:11:dd:ec:99:2d:18:78:6b:ca:d4:be:4a:
         85:1d:2e:2b:e8:7d:d4:55:c6:52:cd:c5:40:bb:c8:53:55:17:
         93:68:59:34:c1:db:3b:53:e6:4c:f1:9b:17:80:74:49:e3:08:
         fc:bc:b4:01:c4:e7:b6:5b:8b:39:5c:45:81:94:79:c6:7b:26:
         99:e6:33:1c:2f:59:cf:1c:8e:fe:f7:96:c0:e9:bd:48:2f:a9:
         5a:d7:7e:7e:d7:3c:1c:b2:1f:90:da:82:cf:cf:05:de:7d:7d:
         fe:26:e4:e7:e5:37:0c:fc:a5:9e:34:1d:4d:f6:fc:a2:d4:3e:
         6e:47:21:bd:ba:ee:38:f3:93:b7:c8:1d:88:ac:19:5a:cd:c2:
         b5:26:24:89:c5:03:15:9e:e2:78:66:d5:fb:78:f9:bd:70:7a:
         d0:02:e7:26:47:71:af:2c:b0:78:70:ae:fd:da:72:74:a4:c4:
         aa:38:3a:85:36:11:87:54:87:b0:15:dc:73:56:da:2e:7b:b8:
         ea:3d:60:92:da:82:24:2b:dd:2b:f4:9f:0a:18:04:19:59:79:
         9d:64:c2:bc:9f:2c:ad:62:7e:6c:98:82:c9:80:0c:1f:eb:ca:
         96:cf:0a:8d:43:f0:17:bf:78:ec:ed:d4:c2:47:0b:5a:eb:e8:
         83:9d:2b:55:f6:54:59:41:8b:77:bc:01:9f:b7:ed:5d:6d:34:
         ab:d9:99:f0:af:13:78:e4:27:e8:3b:41:48:ba:5a:81:1c:f3:
         16:38:25:31:30:29:10:54:43:65:e0:95:0a:47:27:cb:1a:0f:
         0f:15:2f:ef:a5:d7:04:44:33:55:0e:9d:8c:03:3f:08:c0:05:
         d2:fc:e5:fe:09:d2:2a:ad:71:7a:8d:66:43:cd:72:6f:7b:65:
         f3:44:ca:76:9b:90:f4:29:7a:41:0b:56:01:0c:2d:a2:66:bc:
         68:f9:8a:a7:7d:d5:93:23
-----BEGIN CERTIFICATE-----
MIIGQzCCBCugAwIBAgIGEnAAABABMA0GCSqGSIb3DQEBCwUAMIGgMQswCQYDVQQG
EwJWTjESMBAGA1UECAwJVGhhbmggS2hlMRAwDgYDVQQHDAdEYSBOYW5nMRUwEwYD
VQQKDAxTRlIgU29mdHdhcmUxJDAiBgNVBAsMG1NlcnZlciBDZXJ0aWZpY2F0ZSBQ
cm92aWRlcjERMA8GA1UEAwwITG9jYWwgQ0ExGzAZBgkqhkiG9w0BCQEWDGNhQGxv
Y2FsaG9zdDAeFw0xOTA5MTIwOTQ1NTlaFw0yMTA5MTEwOTQ1NTlaMGQxCzAJBgNV
BAYTAlZOMRIwEAYDVQQIDAlUaGFuaCBLaGUxEDAOBgNVBAcMB0RhIE5hbmcxFTAT
BgNVBAoMDFNGUiBTb2Z0d2FyZTEYMBYGA1UEAwwPaG9saXBpYy1sdGQuY29tMIIC
IjANBgkqhkiG9w0BAQEFAAOCAg8AMIICCgKCAgEA1LCbh1DfvWPl5thZGn+VyYz1
2HpvPURDBjcHb9lhRcxaJN8QgW7HiE++I2fTQwrDI4SlILhemiscykxLyw/hUtrj
2mJWaY70h+SG3ecdceU1Bwhl6FBT4P9DEksJT50HPbjuMNAGzuJgLCtUVs+sRQmI
ia5I7CTwEllFE8LWOjgPHzXwsVlnEoXdtO64qzF4FW4H1/oXNE4uZekCt2Vq8dw7
l+eovN8lzNJNbcOn1qEqmwJMIcc2/pB/6TLKkWPNi9vC5I6h+R8NAc+TgyJF6hLF
NeVRtZtZRJ3nAYnP8SUWvw8OQg42TFJGIPlYfp8KNVk/1knMlgBhzTjAEq/KX3kh
8zwWXSa9ZlA1mJCcAGq0mBwZpOkB2lNocNCuHqK+fxJAy9Djz6Xwq3rL9OjeLgmE
OHYI4e3TSxTWUeuJ/o/ykt8fmlcrCdE2WJaiiE8xJCpkCXbrORp4HZPrilr9hYje
PQk5i0T7BAD3J4O+S/MK4Uv20I4lUfYRRkOwmMU/X9RDFTGBdB0HkuzH8A/44rr7
98gqRinvDcInOfznfT8VjQKSLgzG2Ayl6SWW9L2S4GiZqgWPg8go75si8Tj9OoXZ
FAl86LXkNrxz7jgNQEbXs4Qyr9hhEDobiDUPI1UxWWe9v/oPyNK/N6vrSxrVJcdN
I2ql69WELFm6YFftg50CAwEAAaOBvTCBujAdBgNVHQ4EFgQULS7x6WbTPOFHz8VG
IFnPmB15BQQwHwYDVR0jBBgwFoAUIQBRfijDRZJvzSYwuCmShb2Ehl0wCQYDVR0T
BAIwADALBgNVHQ8EBAMCBaAwMgYDVR0RBCswKYIPaG9saXBpYy1sdGQuY29thwR/
AAEBhxAAAAAAAAAAAAAAAAAAAAABMCwGCWCGSAGG+EIBDQQfFh1PcGVuU1NMIEdl
bmVyYXRlZCBDZXJ0aWZpY2F0ZTANBgkqhkiG9w0BAQsFAAOCAgEAEZ9wF7vTPIOq
V6PnHl5nEFmqMx4Fh6v8NULGbdg61P1u2fq60Vo+TDDENrmO1Ht9IaBNwQ0l7dep
jiDIgLWzDLsqWnIdh+qzhjj7MiFCQzK5+1G2U+vmpfXirszZrQ8TOyEB7T2KAe0q
V7db71UhSHX9eeaawjRpfdLmjLn6U8BGJYhL0CQARUhecv0i99k3+22pWe/fEd3s
mS0YeGvK1L5KhR0uK+h91FXGUs3FQLvIU1UXk2hZNMHbO1PmTPGbF4B0SeMI/Ly0
AcTntluLOVxFgZR5xnsmmeYzHC9ZzxyO/veWwOm9SC+pWtd+ftc8HLIfkNqCz88F
3n19/ibk5+U3DPylnjQdTfb8otQ+bkchvbruOPOTt8gdiKwZWs3CtSYkicUDFZ7i
eGbV+3j5vXB60ALnJkdxryyweHCu/dpydKTEqjg6hTYRh1SHsBXcc1baLnu46j1g
ktqCJCvdK/SfChgEGVl5nWTCvJ8srWJ+bJiCyYAMH+vKls8KjUPwF7947O3UwkcL
Wuvog50rVfZUWUGLd7wBn7ftXW00q9mZ8K8TeOQn6DtBSLpagRzzFjglMTApEFRD
ZeCVCkcnyxoPDxUv76XXBEQzVQ6djAM/CMAF0vzl/gnSKq1xeo1mQ81yb3tl80TK
dpuQ9Cl6QQtWAQwtoma8aPmKp33VkyM=
-----END CERTIFICATE-----
